(dp0
S'CITo2E_Lam10TeVConLL_dielectron_2017_BE'
p1
(dp2
I400
(lp3
F170.71657926356897
aF0.2546431616030018
asI700
(lp4
F214.95515230593688
aF0.5704494769651547
asI1100
(lp5
F115.26483107319508
aF0.16353320667177954
asI500
(lp6
F98.2304529592567
aF0.8255949136454355
asI1900
(lp7
F30.587594367376887
aF0.13761536822320947
ass.