(dp0
S'CITo2E_Lam10TeVConLL_dielectron_2017_BE'
p1
(dp2
I400
(lp3
F156.90258399581592
aF0.2651171667515791
asI700
(lp4
F213.68349875776906
aF0.5840853462867632
asI1100
(lp5
F115.20441046327915
aF0.16641773712476876
asI500
(lp6
F100.19233415504436
aF0.9618700852672276
asI1900
(lp7
F30.699030318995455
aF0.1389775919355943
ass.