(dp0
S'CITo2E_Lam10TeVConLL_dielectron_2017_BE'
p1
(dp2
I400
(lp3
F132.66189364426475
aF0.28013243943225
asI700
(lp4
F211.0148047308253
aF0.605888950547995
asI1100
(lp5
F115.68915844143636
aF0.16968450110212174
asI500
(lp6
F100.22910846591174
aF1.1236786464496684
asI1900
(lp7
F30.72803407050141
aF0.14136283581649653
ass.