(dp0
S'CITo2E_Lam10TeVConLL_dielectron_2017_BE'
p1
(dp2
I400
(lp3
F222.70580220781198
aF0.24096860890329594
asI700
(lp4
F222.28036997340442
aF0.5869382178897664
asI1100
(lp5
F115.07784043667672
aF0.16821647102718448
asI500
(lp6
F102.90896573184432
aF3.070504175587348
asI1900
(lp7
F31.86793977649295
aF0.13979011428869206
ass.